target datalayout = "e-m:e-p270:32:32-p271:32:32-p272:64:64-i64:64-i128:128-f80:128-n8:16:32:64-S128"
target triple = "x86_64-pc-linux-gnu"

%union.LWLockPadded = type { %struct.LWLock, [112 x i8] }
%struct.LWLock = type { i16, %struct.pg_atomic_uint32, %struct.proclist_head }
%struct.pg_atomic_uint32 = type { i32 }
%struct.proclist_head = type { i32, i32 }
%struct.MultiXactStateData = type { i32, i32, i8, i32, i32, i32, i8, i32, i32, i32, i32, i32, %struct.ConditionVariable, [0 x i32] }
%struct.ConditionVariable = type { i8, %struct.proclist_head }

@MainLWLockArray = external global ptr, align 8
@MultiXactState = internal global ptr null, align 8

; Function Attrs: nounwind uwtable
define dso_local i32 @ReadNextMultiXactId() #0 {
  %1 = alloca i32, align 4
  call void @llvm.lifetime.start.p0(i64 4, ptr %1) #9
  %2 = load ptr, ptr @MainLWLockArray, align 8
  %3 = getelementptr inbounds %union.LWLockPadded, ptr %2, i64 13
  %4 = call zeroext i1 @LWLockAcquire(ptr noundef %3, i32 noundef 1)
  %5 = load ptr, ptr @MultiXactState, align 8
  %6 = getelementptr inbounds nuw %struct.MultiXactStateData, ptr %5, i32 0, i32 0
  %7 = load i32, ptr %6, align 4
  store i32 %7, ptr %1, align 4
  %8 = load ptr, ptr @MainLWLockArray, align 8
  %9 = getelementptr inbounds %union.LWLockPadded, ptr %8, i64 13
  call void @LWLockRelease(ptr noundef %9)
  %10 = load i32, ptr %1, align 4
  %11 = icmp ult i32 %10, 1
  br i1 %11, label %12, label %13

12:                                               ; preds = %0
  store i32 1, ptr %1, align 4
  br label %13

13:                                               ; preds = %12, %0
  %14 = load i32, ptr %1, align 4
  call void @llvm.lifetime.end.p0(i64 4, ptr %1) #9
  ret i32 %14
}