; Function Attrs: nounwind uwtable
define dso_local range(i32 1, 0) i32 @ReadNextMultiXactId() local_unnamed_addr #0 {
  %1 = load ptr, ptr @MainLWLockArray, align 8
  %2 = getelementptr inbounds nuw i8, ptr %1, i64 1664
  %3 = tail call zeroext i1 @LWLockAcquire(ptr noundef nonnull %2, i32 noundef 1) #13
  %4 = load ptr, ptr @MultiXactState, align 8
  %5 = load i32, ptr %4, align 4
  %6 = load ptr, ptr @MainLWLockArray, align 8
  %7 = getelementptr inbounds nuw i8, ptr %6, i64 1664
  tail call void @LWLockRelease(ptr noundef nonnull %7) #13
  %spec.store.select = tail call i32 @llvm.umax.i32(i32 %5, i32 1)
  ret i32 %spec.store.select
}